; Function Attrs: mustprogress uwtable
define hidden noundef zeroext i1 @_ZN2cv11bioinspired21ImageLogPolProjection14initProjectionEdd(ptr noundef nonnull align 8 dereferenceable(301) %0, double noundef %1, double noundef %2) local_unnamed_addr #3 align 2 {
  %4 = getelementptr inbounds nuw i8, ptr %0, i64 176
  %5 = load i32, ptr %4, align 8, !tbaa !28
  switch i32 %5, label %10 [
    i32 0, label %6
    i32 1, label %8
  ]

6:                                                ; preds = %3
  %7 = tail call noundef zeroext i1 @_ZN2cv11bioinspired21ImageLogPolProjection22_initLogRetinaSamplingEdd(ptr noundef nonnull align 8 dereferenceable(301) %0, double noundef %1, double noundef %2)
  br label %32

8:                                                ; preds = %3
  %9 = tail call noundef zeroext i1 @_ZN2cv11bioinspired21ImageLogPolProjection27_initLogPolarCortexSamplingEdd(ptr noundef nonnull align 8 dereferenceable(301) %0, double noundef %1, double poison)
  br label %32

10:                                               ; preds = %3
  %11 = tail call noundef nonnull align 8 dereferenceable(8) ptr @_ZSt16__ostream_insertIcSt11char_traitsIcEERSt13basic_ostreamIT_T0_ES6_PKS3_l(ptr noundef nonnull align 8 dereferenceable(8) @_ZSt4cout, ptr noundef nonnull @.str, i64 noundef 99)
  %12 = load ptr, ptr @_ZSt4cout, align 8, !tbaa !3
  %13 = getelementptr i8, ptr %12, i64 -24
  %14 = load i64, ptr %13, align 8
  %15 = getelementptr inbounds i8, ptr @_ZSt4cout, i64 %14
  %16 = getelementptr inbounds nuw i8, ptr %15, i64 240
  %17 = load ptr, ptr %16, align 8, !tbaa !72
  %.not.i.i.i = icmp eq ptr %17, null
  br i1 %.not.i.i.i, label %18, label %_ZSt13__check_facetISt5ctypeIcEERKT_PS3_.exit.i.i

18:                                               ; preds = %10
  tail call void @_ZSt16__throw_bad_castv() #18
  unreachable

_ZSt13__check_facetISt5ctypeIcEERKT_PS3_.exit.i.i: ; preds = %10
  %19 = getelementptr inbounds nuw i8, ptr %17, i64 56
  %20 = load i8, ptr %19, align 8, !tbaa !87
  %.not.i1.i.i = icmp eq i8 %20, 0
  br i1 %.not.i1.i.i, label %24, label %21

21:                                               ; preds = %_ZSt13__check_facetISt5ctypeIcEERKT_PS3_.exit.i.i
  %22 = getelementptr inbounds nuw i8, ptr %17, i64 67
  %23 = load i8, ptr %22, align 1, !tbaa !92
  br label %_ZSt4endlIcSt11char_traitsIcEERSt13basic_ostreamIT_T0_ES6_.exit

24:                                               ; preds = %_ZSt13__check_facetISt5ctypeIcEERKT_PS3_.exit.i.i
  tail call void @_ZNKSt5ctypeIcE13_M_widen_initEv(ptr noundef nonnull align 8 dereferenceable(570) %17)
  %25 = load ptr, ptr %17, align 8, !tbaa !3
  %26 = getelementptr inbounds nuw i8, ptr %25, i64 48
  %27 = load ptr, ptr %26, align 8
  %28 = tail call noundef signext i8 %27(ptr noundef nonnull align 8 dereferenceable(570) %17, i8 noundef signext 10)
  br label %_ZSt4endlIcSt11char_traitsIcEERSt13basic_ostreamIT_T0_ES6_.exit

_ZSt4endlIcSt11char_traitsIcEERSt13basic_ostreamIT_T0_ES6_.exit: ; preds = %21, %24
  %.0.i.i.i = phi i8 [ %23, %21 ], [ %28, %24 ]
  %29 = tail call noundef nonnull align 8 dereferenceable(8) ptr @_ZNSo3putEc(ptr noundef nonnull align 8 dereferenceable(8) @_ZSt4cout, i8 noundef signext %.0.i.i.i)
  %30 = tail call noundef nonnull align 8 dereferenceable(8) ptr @_ZNSo5flushEv(ptr noundef nonnull align 8 dereferenceable(8) %29)
  %31 = tail call noundef zeroext i1 @_ZN2cv11bioinspired21ImageLogPolProjection22_initLogRetinaSamplingEdd(ptr noundef nonnull align 8 dereferenceable(301) %0, double noundef %1, double noundef %2)
  br label %32

32:                                               ; preds = %_ZSt4endlIcSt11char_traitsIcEERSt13basic_ostreamIT_T0_ES6_.exit, %8, %6
  %.0 = phi i1 [ %31, %_ZSt4endlIcSt11char_traitsIcEERSt13basic_ostreamIT_T0_ES6_.exit ], [ %9, %8 ], [ %7, %6 ]
  ret i1 %.0
}